Certificate:
    Data:
        Version: 3 (0x2)
        Serial Number: 12013001504193261318 (0xa6b6c1386fac2f06)
    Signature Algorithm: sha1WithRSAEncryption
        Issuer: C=HU, ST=Some-State, O=Internet Widgits Pty Ltd, CN=syslog-ng-monitor-test-ca
        Validity
            Not Before: Sep  7 10:58:33 2015 GMT
            Not After : Sep  6 10:58:33 2018 GMT
        Subject: C=HU, ST=Some-State, O=Internet Widgits Pty Ltd, CN=syslog-ng-monitor-test-ca
        Subject Public Key Info:
            Public Key Algorithm: rsaEncryption
                Public-Key: (1024 bit)
                Modulus:
                    00:b9:84:09:7d:8b:25:0a:3f:55:0a:79:24:1e:5b:
                    27:1d:82:23:f8:04:da:3b:6a:3e:b4:09:f4:99:fa:
                    18:3e:cf:c7:ac:65:fb:9d:6f:36:26:03:5c:30:6a:
                    b4:35:67:74:29:bd:b7:6a:57:5e:6c:79:bc:bf:c4:
                    fb:99:7c:52:9a:80:0a:8b:74:c5:df:74:97:17:2c:
                    8d:fc:3f:6f:fc:95:9f:05:ed:54:d3:64:9c:dc:80:
                    e9:22:8b:67:35:2c:e5:fd:bc:48:cd:5c:c4:61:d8:
                    ca:af:7c:7d:6a:f9:b2:4d:df:41:dd:83:8b:6a:4c:
                    ba:78:47:bf:e7:98:99:2f:5b
                Exponent: 65537 (0x10001)
        X509v3 extensions:
            X509v3 Subject Key Identifier: 
                DC:67:F9:A1:5B:DB:0C:98:B4:50:B8:53:23:A1:E8:51:7E:25:B0:3D
            X509v3 Authority Key Identifier: 
                keyid:DC:67:F9:A1:5B:DB:0C:98:B4:50:B8:53:23:A1:E8:51:7E:25:B0:3D
                DirName:/C=HU/ST=Some-State/O=Internet Widgits Pty Ltd/CN=syslog-ng-monitor-test-ca
                serial:A6:B6:C1:38:6F:AC:2F:06

            X509v3 Basic Constraints: 
                CA:TRUE
    Signature Algorithm: sha1WithRSAEncryption
         b3:83:39:9c:62:45:7b:b5:5d:9a:f9:9c:e8:c6:d5:96:31:c2:
         ca:a2:ac:21:41:24:4e:b6:c9:0a:f7:e3:d5:aa:f1:68:a4:69:
         65:02:15:f3:29:b6:f9:2c:13:77:76:2f:b8:05:7b:30:10:09:
         eb:46:f1:07:bd:b9:f1:74:59:6d:09:83:58:ae:d6:4e:80:98:
         2c:6e:47:ee:5c:c4:0a:9d:5e:fc:70:39:97:6b:27:13:b3:5e:
         e1:c3:a9:c1:fb:4f:2e:18:85:b7:40:4a:24:00:33:99:46:7f:
         4c:5b:2a:79:d4:ca:b3:22:aa:61:c5:45:ca:76:23:83:88:3c:
         34:68
-----BEGIN CERTIFICATE-----
MIIDHzCCAoigAwIBAgIJAKa2wThvrC8GMA0GCSqGSIb3DQEBBQUAMGkxCzAJBgNV
BAYTAkhVMRMwEQYDVQQIEwpTb21lLVN0YXRlMSEwHwYDVQQKExhJbnRlcm5ldCBX
aWRnaXRzIFB0eSBMdGQxIjAgBgNVBAMTGXN5c2xvZy1uZy1tb25pdG9yLXRlc3Qt
Y2EwHhcNMTUwOTA3MTA1ODMzWhcNMTgwOTA2MTA1ODMzWjBpMQswCQYDVQQGEwJI
VTETMBEGA1UECBMKU29tZS1TdGF0ZTEhMB8GA1UEChMYSW50ZXJuZXQgV2lkZ2l0
cyBQdHkgTHRkMSIwIAYDVQQDExlzeXNsb2ctbmctbW9uaXRvci10ZXN0LWNhMIGf
MA0GCSqGSIb3DQEBAQUAA4GNADCBiQKBgQC5hAl9iyUKP1UKeSQeWycdgiP4BNo7
aj60CfSZ+hg+z8esZfudbzYmA1wwarQ1Z3QpvbdqV15seby/xPuZfFKagAqLdMXf
dJcXLI38P2/8lZ8F7VTTZJzcgOkii2c1LOX9vEjNXMRh2MqvfH1q+bJN30Hdg4tq
TLp4R7/nmJkvWwIDAQABo4HOMIHLMB0GA1UdDgQWBBTcZ/mhW9sMmLRQuFMjoehR
fiWwPTCBmwYDVR0jBIGTMIGQgBTcZ/mhW9sMmLRQuFMjoehRfiWwPaFtpGswaTEL
MAkGA1UEBhMCSFUxEzARBgNVBAgTClNvbWUtU3RhdGUxITAfBgNVBAoTGEludGVy
bmV0IFdpZGdpdHMgUHR5IEx0ZDEiMCAGA1UEAxMZc3lzbG9nLW5nLW1vbml0b3It
dGVzdC1jYYIJAKa2wThvrC8GMAwGA1UdEwQFMAMBAf8wDQYJKoZIhvcNAQEFBQAD
gYEAs4M5nGJFe7Vdmvmc6MbVljHCyqKsIUEkTrbJCvfj1arxaKRpZQIV8ym2+SwT
d3YvuAV7MBAJ60bxB7258XRZbQmDWK7WToCYLG5H7lzECp1e/HA5l2snE7Ne4cOp
wftPLhiFt0BKJAAzmUZ/TFsqedTKsyKqYcVFynYjg4g8NGg=
-----END CERTIFICATE-----
