Certificate:
    Data:
        Version: 3 (0x2)
        Serial Number: 12013001504193261319 (0xa6b6c1386fac2f07)
    Signature Algorithm: sha1WithRSAEncryption
        Issuer: C=HU, ST=Some-State, O=Internet Widgits Pty Ltd, CN=syslog-ng-monitor-test-ca
        Validity
            Not Before: Sep  7 12:44:39 2015 GMT
            Not After : Feb 27 12:44:39 2021 GMT
        Subject: C=HU, ST=Some-State, O=Internet Widgits Pty Ltd, CN=testcert
        Subject Public Key Info:
            Public Key Algorithm: rsaEncryption
                Public-Key: (1024 bit)
                Modulus:
                    00:bd:cd:2e:92:7f:3d:93:dc:a0:29:a5:6e:a9:e6:
                    ba:5b:d0:e0:c8:d4:7a:b2:55:92:a5:d0:8e:1e:6b:
                    4a:33:a3:77:24:d6:e2:86:58:75:0a:41:44:84:f2:
                    e3:e9:56:7b:fc:19:ca:48:fd:d6:7d:6b:e2:0e:30:
                    6f:c2:39:56:99:5d:2c:f5:5b:99:6f:6f:f4:e5:0f:
                    bf:29:a7:73:83:56:02:1c:18:ab:70:86:d6:e0:7c:
                    a9:94:32:47:d2:d6:63:b6:33:97:36:71:66:bc:20:
                    ae:e6:b9:45:93:b5:95:86:2e:a9:59:62:1d:0f:42:
                    99:e8:30:76:9b:a5:70:d8:29
                Exponent: 65537 (0x10001)
        X509v3 extensions:
            X509v3 Basic Constraints: 
                CA:FALSE
            Netscape Comment: 
                OpenSSL Generated Certificate
            X509v3 Subject Key Identifier: 
                61:23:70:5D:25:94:30:FF:28:DE:FB:FF:4F:A9:BE:DC:53:D2:04:5D
            X509v3 Authority Key Identifier: 
                keyid:DC:67:F9:A1:5B:DB:0C:98:B4:50:B8:53:23:A1:E8:51:7E:25:B0:3D

    Signature Algorithm: sha1WithRSAEncryption
         65:12:9d:88:8c:77:71:ab:df:bb:5d:31:17:33:7f:d2:cc:0f:
         0e:62:c8:77:1b:f6:ed:81:45:60:14:66:92:da:78:08:49:4c:
         1c:0a:43:c7:b2:c3:e9:36:7e:87:2e:95:9d:0d:33:eb:ca:e1:
         70:f6:82:ad:27:e5:fa:e5:74:4b:33:ef:64:41:8a:be:58:c9:
         77:e3:bc:5e:a8:af:19:93:29:34:e6:14:e6:8b:3d:34:3c:5e:
         39:0b:3c:e1:ec:19:b5:d6:ea:09:aa:da:d7:b9:fd:76:9a:e4:
         de:d8:ee:5b:36:ec:c4:9d:9a:7a:de:5c:4f:77:e1:b3:c4:82:
         39:b9
-----BEGIN CERTIFICATE-----
MIICujCCAiOgAwIBAgIJAKa2wThvrC8HMA0GCSqGSIb3DQEBBQUAMGkxCzAJBgNV
BAYTAkhVMRMwEQYDVQQIEwpTb21lLVN0YXRlMSEwHwYDVQQKExhJbnRlcm5ldCBX
aWRnaXRzIFB0eSBMdGQxIjAgBgNVBAMTGXN5c2xvZy1uZy1tb25pdG9yLXRlc3Qt
Y2EwHhcNMTUwOTA3MTI0NDM5WhcNMjEwMjI3MTI0NDM5WjBYMQswCQYDVQQGEwJI
VTETMBEGA1UECBMKU29tZS1TdGF0ZTEhMB8GA1UEChMYSW50ZXJuZXQgV2lkZ2l0
cyBQdHkgTHRkMREwDwYDVQQDEwh0ZXN0Y2VydDCBnzANBgkqhkiG9w0BAQEFAAOB
jQAwgYkCgYEAvc0ukn89k9ygKaVuqea6W9DgyNR6slWSpdCOHmtKM6N3JNbihlh1
CkFEhPLj6VZ7/BnKSP3WfWviDjBvwjlWmV0s9VuZb2/05Q+/Kadzg1YCHBircIbW
4HyplDJH0tZjtjOXNnFmvCCu5rlFk7WVhi6pWWIdD0KZ6DB2m6Vw2CkCAwEAAaN7
MHkwCQYDVR0TBAIwADAsBglghkgBhvhCAQ0EHxYdT3BlblNTTCBHZW5lcmF0ZWQg
Q2VydGlmaWNhdGUwHQYDVR0OBBYEFGEjcF0llDD/KN77/0+pvtxT0gRdMB8GA1Ud
IwQYMBaAFNxn+aFb2wyYtFC4UyOh6FF+JbA9MA0GCSqGSIb3DQEBBQUAA4GBAGUS
nYiMd3Gr37tdMRczf9LMDw5iyHcb9u2BRWAUZpLaeAhJTBwKQ8eyw+k2foculZ0N
M+vK4XD2gq0n5frldEsz72RBir5YyXfjvF6orxmTKTTmFOaLPTQ8XjkLPOHsGbXW
6gmq2te5/Xaa5N7Y7ls27MSdmnreXE934bPEgjm5
-----END CERTIFICATE-----
